; Function Attrs: nounwind uwtable
define hidden noundef i32 @dom_node_last_child_read(ptr noundef %0, ptr noundef %1) local_unnamed_addr #0 {
  %3 = tail call ptr @dom_object_get_node(ptr noundef %0) #12
  %4 = icmp eq ptr %3, null
  br i1 %4, label %5, label %6

5:                                                ; preds = %2
  tail call void @php_dom_throw_error(i32 noundef 11, i32 noundef 1) #12
  br label %15

6:                                                ; preds = %2
  %7 = tail call i32 @dom_node_children_valid(ptr noundef nonnull %3) #12
  %8 = icmp eq i32 %7, 0
  br i1 %8, label %9, label %.thread

9:                                                ; preds = %6
  %10 = getelementptr inbounds i8, ptr %3, i64 32
  %11 = load ptr, ptr %10, align 8
  %.not = icmp eq ptr %11, null
  br i1 %.not, label %.thread, label %13

.thread:                                          ; preds = %6, %9
  %12 = getelementptr inbounds i8, ptr %1, i64 8
  store i32 1, ptr %12, align 8
  br label %15

13:                                               ; preds = %9
  %14 = tail call zeroext i1 @php_dom_create_object(ptr noundef nonnull %11, ptr noundef %1, ptr noundef %0) #12
  br label %15

15:                                               ; preds = %13, %.thread, %5
  %.09 = phi i32 [ -1, %5 ], [ 0, %13 ], [ 0, %.thread ]
  ret i32 %.09
}